(dp1
S'output'
p2
S'<class \'gluon.contrib.pymysql.err.ProgrammingError\'> (1064, u"You have an error in your SQL syntax; check the manual that corresponds to your MariaDB server version for the right syntax to use near \'ilike(\'%%_d%%\') and a.ativo=\'T\' order by i.titulo, a.pessoacontato\' at line 1")'
p3
sS'layer'
p4
S'/home/dayvson/Documentos/Dev/web2py/applications/gestor/controllers/agenda.py'
p5
sS'code'
p6
S'<code object <module> at 0x7f0a7875fab0, file "/home/dayvson/Documentos/Dev/web2py/applications/gestor/controllers/agenda.py", line 1>'
p7
sS'snapshot'
p8
(dp9
S'exception'
p10
(dp11
S'__module__'
p12
S"'gluon.contrib.pymysql.err'"
p13
sS'__getslice__'
p14
S"<method-wrapper '__getslice__' of ProgrammingError object>"
p15
sS'__str__'
p16
S"<method-wrapper '__str__' of ProgrammingError object>"
p17
sS'__reduce__'
p18
S'<built-in method __reduce__ of ProgrammingError object>'
p19
sS'__dict__'
p20
S'{}'
p21
sS'__sizeof__'
p22
S'<built-in method __sizeof__ of ProgrammingError object>'
p23
sS'__weakref__'
p24
S'None'
p25
sS'message'
p26
S"''"
p27
sS'__init__'
p28
S"<method-wrapper '__init__' of ProgrammingError object>"
p29
sS'__setattr__'
p30
S"<method-wrapper '__setattr__' of ProgrammingError object>"
p31
sS'__reduce_ex__'
p32
S'<built-in method __reduce_ex__ of ProgrammingError object>'
p33
sS'__new__'
p34
S'<built-in method __new__ of type object>'
p35
sS'__format__'
p36
S'<built-in method __format__ of ProgrammingError object>'
p37
sS'__class__'
p38
S"<class 'gluon.contrib.pymysql.err.ProgrammingError'>"
p39
sS'__doc__'
p40
S"'Exception raised for programming errors, e.g. ta...t, wrong number\\n    of parameters specified, etc.'"
p41
sS'__getitem__'
p42
S"<method-wrapper '__getitem__' of ProgrammingError object>"
p43
sS'__setstate__'
p44
S'<built-in method __setstate__ of ProgrammingError object>'
p45
sS'__getattribute__'
p46
S"<method-wrapper '__getattribute__' of ProgrammingError object>"
p47
sS'args'
p48
S'(1064, u"You have an error in your SQL syntax; check th...T\' order by i.titulo, a.pessoacontato\' at line 1")'
p49
sS'__subclasshook__'
p50
S'<built-in method __subclasshook__ of type object>'
p51
sS'__unicode__'
p52
S'<built-in method __unicode__ of ProgrammingError object>'
p53
sS'__delattr__'
p54
S"<method-wrapper '__delattr__' of ProgrammingError object>"
p55
sS'__repr__'
p56
S"<method-wrapper '__repr__' of ProgrammingError object>"
p57
sS'__hash__'
p58
S"<method-wrapper '__hash__' of ProgrammingError object>"
p59
ssS'evalue'
p60
S'(1064, u"You have an error in your SQL syntax; check the manual that corresponds to your MariaDB server version for the right syntax to use near \'ilike(\'%%_d%%\') and a.ativo=\'T\' order by i.titulo, a.pessoacontato\' at line 1")'
p61
sS'request'
p62
cgluon.html
XML_unpickle
p63
(S's\x0bQ\x00\x00<div><table><tr><td style="font-weight:bold;vertical-align:top;">ajax</td><td style="vertical-align:top;">:</td><td><div>False</div></td></tr><tr><td style="font-weight:bold;vertical-align:top;">application</td><td style="vertical-align:top;">:</td><td><div>gestor</div></td></tr><tr><td style="font-weight:bold;vertical-align:top;">args</td><td style="vertical-align:top;">:</td><td><div><table><tr><td><div>_d</div></td></tr></table></div></td></tr><tr><td style="font-weight:bold;vertical-align:top;">cid</td><td style="vertical-align:top;">:</td><td><div>None</div></td></tr><tr><td style="font-weight:bold;vertical-align:top;">client</td><td style="vertical-align:top;">:</td><td><div>127.0.0.1</div></td></tr><tr><td style="font-weight:bold;vertical-align:top;">controller</td><td style="vertical-align:top;">:</td><td><div>agenda</div></td></tr><tr><td style="font-weight:bold;vertical-align:top;">cookies</td><td style="vertical-align:top;">:</td><td><div><table><tr><td style="font-weight:bold;vertical-align:top;">session_id_welcome</td><td style="vertical-align:top;">:</td><td><div>127.0.0.1-27ea8ffb-c066-440b-b313-9c2d0b62fcf4<table><tr><td style="font-weight:bold;vertical-align:top;">comment</td><td style="vertical-align:top;">:</td><td><div></div></td></tr><tr><td style="font-weight:bold;vertical-align:top;">domain</td><td style="vertical-align:top;">:</td><td><div></div></td></tr><tr><td style="font-weight:bold;vertical-align:top;">expires</td><td style="vertical-align:top;">:</td><td><div></div></td></tr><tr><td style="font-weight:bold;vertical-align:top;">httponly</td><td style="vertical-align:top;">:</td><td><div></div></td></tr><tr><td style="font-weight:bold;vertical-align:top;">max-age</td><td style="vertical-align:top;">:</td><td><div></div></td></tr><tr><td style="font-weight:bold;vertical-align:top;">path</td><td style="vertical-align:top;">:</td><td><div></div></td></tr><tr><td style="font-weight:bold;vertical-align:top;">secure</td><td style="vertical-align:top;">:</td><td><div></div></td></tr><tr><td style="font-weight:bold;vertical-align:top;">version</td><td style="vertical-align:top;">:</td><td><div></div></td></tr></table></div></td></tr></table></div></td></tr><tr><td style="font-weight:bold;vertical-align:top;">env</td><td style="vertical-align:top;">:</td><td><div><table><tr><td style="font-weight:bold;vertical-align:top;">HTTP_ACCEPT</td><td style="vertical-align:top;">:</td><td><div>text/html,application/xhtml+xml,application/xml;q=0.9,image/webp,image/apng,*/*;q=0.8</div></td></tr><tr><td style="font-weight:bold;vertical-align:top;">HTTP_ACCEPT_ENCODING</td><td style="vertical-align:top;">:</td><td><div>gzip, deflate, br</div></td></tr><tr><td style="font-weight:bold;vertical-align:top;">HTTP_ACCEPT_LANGUAGE</td><td style="vertical-align:top;">:</td><td><div>pt-BR,pt;q=0.9,en-US;q=0.8,en;q=0.7</div></td></tr><tr><td style="font-weight:bold;vertical-align:top;">HTTP_CONNECTION</td><td style="vertical-align:top;">:</td><td><div>keep-alive</div></td></tr><tr><td style="font-weight:bold;vertical-align:top;">HTTP_COOKIE</td><td style="vertical-align:top;">:</td><td><div>session_id_welcome=127.0.0.1-27ea8ffb-c066-440b-b313-9c2d0b62fcf4</div></td></tr><tr><td style="font-weight:bold;vertical-align:top;">HTTP_HOST</td><td style="vertical-align:top;">:</td><td><div>127.0.0.1:8000</div></td></tr><tr><td style="font-weight:bold;vertical-align:top;">HTTP_UPGRADE_INSECURE_REQUESTS</td><td style="vertical-align:top;">:</td><td><div>1</div></td></tr><tr><td style="font-weight:bold;vertical-align:top;">HTTP_USER_AGENT</td><td style="vertical-align:top;">:</td><td><div>Mozilla/5.0 (X11; Linux x86_64) AppleWebKit/537.36 (KHTML, like Gecko) Chrome/62.0.3202.94 Safari/537.36</div></td></tr><tr><td style="font-weight:bold;vertical-align:top;">PATH_INFO</td><td style="vertical-align:top;">:</td><td><div>/gestor/agenda/FXHR_pesquisaContatos/ d</div></td></tr><tr><td style="font-weight:bold;vertical-align:top;">QUERY_STRING</td><td style="vertical-align:top;">:</td><td><div></div></td></tr><tr><td style="font-weight:bold;vertical-align:top;">REMOTE_ADDR</td><td style="vertical-align:top;">:</td><td><div>127.0.0.1</div></td></tr><tr><td style="font-weight:bold;vertical-align:top;">REMOTE_PORT</td><td style="vertical-align:top;">:</td><td><div>49702</div></td></tr><tr><td style="font-weight:bold;vertical-align:top;">REQUEST_METHOD</td><td style="vertical-align:top;">:</td><td><div>GET</div></td></tr><tr><td style="font-weight:bold;vertical-align:top;">SCRIPT_NAME</td><td style="vertical-align:top;">:</td><td><div></div></td></tr><tr><td style="font-weight:bold;vertical-align:top;">SERVER_NAME</td><td style="vertical-align:top;">:</td><td><div>dayvson</div></td></tr><tr><td style="font-weight:bold;vertical-align:top;">SERVER_PORT</td><td style="vertical-align:top;">:</td><td><div>8000</div></td></tr><tr><td style="font-weight:bold;vertical-align:top;">SERVER_PROTOCOL</td><td style="vertical-align:top;">:</td><td><div>HTTP/1.1</div></td></tr><tr><td style="font-weight:bold;vertical-align:top;">SERVER_SOFTWARE</td><td style="vertical-align:top;">:</td><td><div>Rocket 1.2.6</div></td></tr><tr><td style="font-weight:bold;vertical-align:top;">app_folders</td><td style="vertical-align:top;">:</td><td><div>set([&#x27;/home/dayvson/Documentos/Dev/web2py/applications/gestor/&#x27;, &#x27;/home/dayvson/Documentos/Dev/web2py/applications/welcome/&#x27;])</div></td></tr><tr><td style="font-weight:bold;vertical-align:top;">applications_parent</td><td style="vertical-align:top;">:</td><td><div>/home/dayvson/Documentos/Dev/web2py</div></td></tr><tr><td style="font-weight:bold;vertical-align:top;">cmd_args</td><td style="vertical-align:top;">:</td><td><div><table></table></div></td></tr><tr><td style="font-weight:bold;vertical-align:top;">cmd_options</td><td style="vertical-align:top;">:</td><td><div>&lt;Values at 0x7f0a83d428c0: {&#x27;verbose&#x27;: False, &#x27;ip&#x27;: &#x27;127.0.0.1&#x27;, &#x27;debuglevel&#x27;: 30, &#x27;with_scheduler&#x27;: False, &#x27;shutdown_timeout&#x27;: 5, &#x27;taskbar&#x27;: False, &#x27;with_coverage&#x27;: False, &#x27;pid_filename&#x27;: &#x27;httpserver.pid&#x27;, &#x27;maxthreads&#x27;: None, &#x27;softcron&#x27;: False, &#x27;server_name&#x27;: &#x27;dayvson&#x27;, &#x27;bpython&#x27;: False, &#x27;nogui&#x27;: False, &#x27;port&#x27;: 8000, &#x27;print_errors&#x27;: False, &#x27;extcron&#x27;: False, &#x27;runcron&#x27;: False, &#x27;run_system_tests&#x27;: False, &#x27;test&#x27;: None, &#x27;folder&#x27;: &#x27;/home/dayvson/Documentos/Dev/web2py&#x27;, &#x27;config&#x27;: &#x27;&#x27;, &#x27;minthreads&#x27;: None, &#x27;shell&#x27;: None, &#x27;run&#x27;: &#x27;&#x27;, &#x27;log_filename&#x27;: &#x27;httpserver.log&#x27;, &#x27;profiler_dir&#x27;: None, &#x27;args&#x27;: [&#x27;&#x27;], &#x27;socket_timeout&#x27;: 5, &#x27;ssl_ca_certificate&#x27;: None, &#x27;scheduler&#x27;: None, &#x27;interfaces&#x27;: None, &#x27;ssl_private_key&#x27;: &#x27;&#x27;, &#x27;gae&#x27;: None, &#x27;password&#x27;: &#x27;******&#x27;, &#x27;request_queue_size&#x27;: 5, &#x27;ssl_certificate&#x27;: &#x27;&#x27;, &#x27;cronjob&#x27;: False, &#x27;numthreads&#x27;: None, &#x27;quiet&#x27;: False, &#x27;import_models&#x27;: False, &#x27;timeout&#x27;: 10, &#x27;plain&#x27;: False, &#x27;nobanner&#x27;: False}&gt;</div></td></tr><tr><td style="font-weight:bold;vertical-align:top;">db_sessions</td><td style="vertical-align:top;">:</td><td><div>set([])</div></td></tr><tr><td style="font-weight:bold;vertical-align:top;">debugging</td><td style="vertical-align:top;">:</td><td><div>False</div></td></tr><tr><td style="font-weight:bold;vertical-align:top;">gluon_parent</td><td style="vertical-align:top;">:</td><td><div>/home/dayvson/Documentos/Dev/web2py</div></td></tr><tr><td style="font-weight:bold;vertical-align:top;">http_accept</td><td style="vertical-align:top;">:</td><td><div>text/html,application/xhtml+xml,application/xml;q=0.9,image/webp,image/apng,*/*;q=0.8</div></td></tr><tr><td style="font-weight:bold;vertical-align:top;">http_accept_encoding</td><td style="vertical-align:top;">:</td><td><div>gzip, deflate, br</div></td></tr><tr><td style="font-weight:bold;vertical-align:top;">http_accept_language</td><td style="vertical-align:top;">:</td><td><div>pt-BR,pt;q=0.9,en-US;q=0.8,en;q=0.7</div></td></tr><tr><td style="font-weight:bold;vertical-align:top;">http_connection</td><td style="vertical-align:top;">:</td><td><div>keep-alive</div></td></tr><tr><td style="font-weight:bold;vertical-align:top;">http_cookie</td><td style="vertical-align:top;">:</td><td><div>session_id_welcome=127.0.0.1-27ea8ffb-c066-440b-b313-9c2d0b62fcf4</div></td></tr><tr><td style="font-weight:bold;vertical-align:top;">http_host</td><td style="vertical-align:top;">:</td><td><div>127.0.0.1:8000</div></td></tr><tr><td style="font-weight:bold;vertical-align:top;">http_upgrade_insecure_requests</td><td style="vertical-align:top;">:</td><td><div>1</div></td></tr><tr><td style="font-weight:bold;vertical-align:top;">http_user_agent</td><td style="vertical-align:top;">:</td><td><div>Mozilla/5.0 (X11; Linux x86_64) AppleWebKit/537.36 (KHTML, like Gecko) Chrome/62.0.3202.94 Safari/537.36</div></td></tr><tr><td style="font-weight:bold;vertical-align:top;">is_jython</td><td style="vertical-align:top;">:</td><td><div>False</div></td></tr><tr><td style="font-weight:bold;vertical-align:top;">is_py2</td><td style="vertical-align:top;">:</td><td><div>True</div></td></tr><tr><td style="font-weight:bold;vertical-align:top;">is_pypy</td><td style="vertical-align:top;">:</td><td><div>False</div></td></tr><tr><td style="font-weight:bold;vertical-align:top;">is_source</td><td style="vertical-align:top;">:</td><td><div>True</div></td></tr><tr><td style="font-weight:bold;vertical-align:top;">local_hosts</td><td style="vertical-align:top;">:</td><td><div><table><tr><td><div>::1</div></td></tr><tr><td><div>127.0.1.1</div></td></tr><tr><td><div>::ffff:127.0.0.1</div></td></tr><tr><td><div>127.0.0.1</div></td></tr><tr><td><div>dayvson</div></td></tr></table></div></td></tr><tr><td style="font-weight:bold;vertical-align:top;">path_info</td><td style="vertical-align:top;">:</td><td><div>/gestor/agenda/FXHR_pesquisaContatos/ d</div></td></tr><tr><td style="font-weight:bold;vertical-align:top;">query_string</td><td style="vertical-align:top;">:</td><td><div></div></td></tr><tr><td style="font-weight:bold;vertical-align:top;">remote_addr</td><td style="vertical-align:top;">:</td><td><div>127.0.0.1</div></td></tr><tr><td style="font-weight:bold;vertical-align:top;">remote_port</td><td style="vertical-align:top;">:</td><td><div>49702</div></td></tr><tr><td style="font-weight:bold;vertical-align:top;">request_method</td><td style="vertical-align:top;">:</td><td><div>GET</div></td></tr><tr><td style="font-weight:bold;vertical-align:top;">request_uri</td><td style="vertical-align:top;">:</td><td><div>/gestor/agenda/FXHR_pesquisaContatos/ d</div></td></tr><tr><td style="font-weight:bold;vertical-align:top;">script_name</td><td style="vertical-align:top;">:</td><td><div></div></td></tr><tr><td style="font-weight:bold;vertical-align:top;">server_name</td><td style="vertical-align:top;">:</td><td><div>dayvson</div></td></tr><tr><td style="font-weight:bold;vertical-align:top;">server_port</td><td style="vertical-align:top;">:</td><td><div>8000</div></td></tr><tr><td style="font-weight:bold;vertical-align:top;">server_protocol</td><td style="vertical-align:top;">:</td><td><div>HTTP/1.1</div></td></tr><tr><td style="font-weight:bold;vertical-align:top;">server_software</td><td style="vertical-align:top;">:</td><td><div>Rocket 1.2.6</div></td></tr><tr><td style="font-weight:bold;vertical-align:top;">web2py_path</td><td style="vertical-align:top;">:</td><td><div>/home/dayvson/Documentos/Dev/web2py</div></td></tr><tr><td style="font-weight:bold;vertical-align:top;">web2py_version</td><td style="vertical-align:top;">:</td><td><div>2.15.4-stable+timestamp.2017.09.02.04.02.22</div></td></tr><tr><td style="font-weight:bold;vertical-align:top;">wsgi.errors</td><td style="vertical-align:top;">:</td><td><div>&lt;open file &#x27;&lt;stderr&gt;&#x27;, mode &#x27;w&#x27; at 0x7f0a8a8b01e0&gt;</div></td></tr><tr><td style="font-weight:bold;vertical-align:top;">wsgi.file_wrapper</td><td style="vertical-align:top;">:</td><td><div>&lt;class wsgiref.util.FileWrapper at 0x7f0a83d80258&gt;</div></td></tr><tr><td style="font-weight:bold;vertical-align:top;">wsgi.input</td><td style="vertical-align:top;">:</td><td><div>&lt;socket._fileobject object at 0x7f0a8002b550&gt;</div></td></tr><tr><td style="font-weight:bold;vertical-align:top;">wsgi.multiprocess</td><td style="vertical-align:top;">:</td><td><div>False</div></td></tr><tr><td style="font-weight:bold;vertical-align:top;">wsgi.multithread</td><td style="vertical-align:top;">:</td><td><div>True</div></td></tr><tr><td style="font-weight:bold;vertical-align:top;">wsgi.run_once</td><td style="vertical-align:top;">:</td><td><div>False</div></td></tr><tr><td style="font-weight:bold;vertical-align:top;">wsgi.url_scheme</td><td style="vertical-align:top;">:</td><td><div>http</div></td></tr><tr><td style="font-weight:bold;vertical-align:top;">wsgi.version</td><td style="vertical-align:top;">:</td><td><div><table><tr><td><div>1</div></td></tr><tr><td><div>0</div></td></tr></table></div></td></tr><tr><td style="font-weight:bold;vertical-align:top;">wsgi_errors</td><td style="vertical-align:top;">:</td><td><div>&lt;open file &#x27;&lt;stderr&gt;&#x27;, mode &#x27;w&#x27; at 0x7f0a8a8b01e0&gt;</div></td></tr><tr><td style="font-weight:bold;vertical-align:top;">wsgi_file_wrapper</td><td style="vertical-align:top;">:</td><td><div>&lt;class wsgiref.util.FileWrapper at 0x7f0a83d80258&gt;</div></td></tr><tr><td style="font-weight:bold;vertical-align:top;">wsgi_input</td><td style="vertical-align:top;">:</td><td><div>&lt;socket._fileobject object at 0x7f0a8002b550&gt;</div></td></tr><tr><td style="font-weight:bold;vertical-align:top;">wsgi_multiprocess</td><td style="vertical-align:top;">:</td><td><div>False</div></td></tr><tr><td style="font-weight:bold;vertical-align:top;">wsgi_multithread</td><td style="vertical-align:top;">:</td><td><div>True</div></td></tr><tr><td style="font-weight:bold;vertical-align:top;">wsgi_run_once</td><td style="vertical-align:top;">:</td><td><div>False</div></td></tr><tr><td style="font-weight:bold;vertical-align:top;">wsgi_url_scheme</td><td style="vertical-align:top;">:</td><td><div>http</div></td></tr><tr><td style="font-weight:bold;vertical-align:top;">wsgi_version</td><td style="vertical-align:top;">:</td><td><div><table><tr><td><div>1</div></td></tr><tr><td><div>0</div></td></tr></table></div></td></tr></table></div></td></tr><tr><td style="font-weight:bold;vertical-align:top;">extension</td><td style="vertical-align:top;">:</td><td><div>html</div></td></tr><tr><td style="font-weight:bold;vertical-align:top;">folder</td><td style="vertical-align:top;">:</td><td><div>/home/dayvson/Documentos/Dev/web2py/applications/gestor/</div></td></tr><tr><td style="font-weight:bold;vertical-align:top;">function</td><td style="vertical-align:top;">:</td><td><div>FXHR_pesquisaContatos</div></td></tr><tr><td style="font-weight:bold;vertical-align:top;">global_settings</td><td style="vertical-align:top;">:</td><td><div><table><tr><td style="font-weight:bold;vertical-align:top;">app_folders</td><td style="vertical-align:top;">:</td><td><div>set([&#x27;/home/dayvson/Documentos/Dev/web2py/applications/gestor/&#x27;, &#x27;/home/dayvson/Documentos/Dev/web2py/applications/welcome/&#x27;])</div></td></tr><tr><td style="font-weight:bold;vertical-align:top;">applications_parent</td><td style="vertical-align:top;">:</td><td><div>/home/dayvson/Documentos/Dev/web2py</div></td></tr><tr><td style="font-weight:bold;vertical-align:top;">cmd_args</td><td style="vertical-align:top;">:</td><td><div><table></table></div></td></tr><tr><td style="font-weight:bold;vertical-align:top;">cmd_options</td><td style="vertical-align:top;">:</td><td><div>&lt;Values at 0x7f0a83d428c0: {&#x27;verbose&#x27;: False, &#x27;ip&#x27;: &#x27;127.0.0.1&#x27;, &#x27;debuglevel&#x27;: 30, &#x27;with_scheduler&#x27;: False, &#x27;shutdown_timeout&#x27;: 5, &#x27;taskbar&#x27;: False, &#x27;with_coverage&#x27;: False, &#x27;pid_filename&#x27;: &#x27;httpserver.pid&#x27;, &#x27;maxthreads&#x27;: None, &#x27;softcron&#x27;: False, &#x27;server_name&#x27;: &#x27;dayvson&#x27;, &#x27;bpython&#x27;: False, &#x27;nogui&#x27;: False, &#x27;port&#x27;: 8000, &#x27;print_errors&#x27;: False, &#x27;extcron&#x27;: False, &#x27;runcron&#x27;: False, &#x27;run_system_tests&#x27;: False, &#x27;test&#x27;: None, &#x27;folder&#x27;: &#x27;/home/dayvson/Documentos/Dev/web2py&#x27;, &#x27;config&#x27;: &#x27;&#x27;, &#x27;minthreads&#x27;: None, &#x27;shell&#x27;: None, &#x27;run&#x27;: &#x27;&#x27;, &#x27;log_filename&#x27;: &#x27;httpserver.log&#x27;, &#x27;profiler_dir&#x27;: None, &#x27;args&#x27;: [&#x27;&#x27;], &#x27;socket_timeout&#x27;: 5, &#x27;ssl_ca_certificate&#x27;: None, &#x27;scheduler&#x27;: None, &#x27;interfaces&#x27;: None, &#x27;ssl_private_key&#x27;: &#x27;&#x27;, &#x27;gae&#x27;: None, &#x27;password&#x27;: &#x27;******&#x27;, &#x27;request_queue_size&#x27;: 5, &#x27;ssl_certificate&#x27;: &#x27;&#x27;, &#x27;cronjob&#x27;: False, &#x27;numthreads&#x27;: None, &#x27;quiet&#x27;: False, &#x27;import_models&#x27;: False, &#x27;timeout&#x27;: 10, &#x27;plain&#x27;: False, &#x27;nobanner&#x27;: False}&gt;</div></td></tr><tr><td style="font-weight:bold;vertical-align:top;">db_sessions</td><td style="vertical-align:top;">:</td><td><div>set([])</div></td></tr><tr><td style="font-weight:bold;vertical-align:top;">debugging</td><td style="vertical-align:top;">:</td><td><div>False</div></td></tr><tr><td style="font-weight:bold;vertical-align:top;">gluon_parent</td><td style="vertical-align:top;">:</td><td><div>/home/dayvson/Documentos/Dev/web2py</div></td></tr><tr><td style="font-weight:bold;vertical-align:top;">is_jython</td><td style="vertical-align:top;">:</td><td><div>False</div></td></tr><tr><td style="font-weight:bold;vertical-align:top;">is_py2</td><td style="vertical-align:top;">:</td><td><div>True</div></td></tr><tr><td style="font-weight:bold;vertical-align:top;">is_pypy</td><td style="vertical-align:top;">:</td><td><div>False</div></td></tr><tr><td style="font-weight:bold;vertical-align:top;">is_source</td><td style="vertical-align:top;">:</td><td><div>True</div></td></tr><tr><td style="font-weight:bold;vertical-align:top;">local_hosts</td><td style="vertical-align:top;">:</td><td><div><table><tr><td><div>::1</div></td></tr><tr><td><div>127.0.1.1</div></td></tr><tr><td><div>::ffff:127.0.0.1</div></td></tr><tr><td><div>127.0.0.1</div></td></tr><tr><td><div>dayvson</div></td></tr></table></div></td></tr><tr><td style="font-weight:bold;vertical-align:top;">web2py_version</td><td style="vertical-align:top;">:</td><td><div>2.15.4-stable+timestamp.2017.09.02.04.02.22</div></td></tr></table></div></td></tr><tr><td style="font-weight:bold;vertical-align:top;">is_https</td><td style="vertical-align:top;">:</td><td><div>False</div></td></tr><tr><td style="font-weight:bold;vertical-align:top;">is_local</td><td style="vertical-align:top;">:</td><td><div>True</div></td></tr><tr><td style="font-weight:bold;vertical-align:top;">is_restful</td><td style="vertical-align:top;">:</td><td><div>False</div></td></tr><tr><td style="font-weight:bold;vertical-align:top;">is_scheduler</td><td style="vertical-align:top;">:</td><td><div>False</div></td></tr><tr><td style="font-weight:bold;vertical-align:top;">is_shell</td><td style="vertical-align:top;">:</td><td><div>False</div></td></tr><tr><td style="font-weight:bold;vertical-align:top;">now</td><td style="vertical-align:top;">:</td><td><div>datetime.datetime(2017, 12, 12, 15, 42, 32, 887060)</div></td></tr><tr><td style="font-weight:bold;vertical-align:top;">raw_args</td><td style="vertical-align:top;">:</td><td><div> d</div></td></tr><tr><td style="font-weight:bold;vertical-align:top;">raw_extension</td><td style="vertical-align:top;">:</td><td><div>None</div></td></tr><tr><td style="font-weight:bold;vertical-align:top;">url</td><td style="vertical-align:top;">:</td><td><div>/gestor/agenda/FXHR_pesquisaContatos/ d</div></td></tr><tr><td style="font-weight:bold;vertical-align:top;">utcnow</td><td style="vertical-align:top;">:</td><td><div>datetime.datetime(2017, 12, 12, 18, 42, 32, 887084)</div></td></tr><tr><td style="font-weight:bold;vertical-align:top;">wsgi</td><td style="vertical-align:top;">:</td><td><div>&lt;gluon.main.LazyWSGI object at 0x7f0a786ed150&gt;</div></td></tr></table></div>'
tRp64
sS'frames'
p65
(lp66
(dp67
S'file'
p68
S'/home/dayvson/Documentos/Dev/web2py/gluon/restricted.py'
p69
sS'dump'
p70
(dp71
S'environment'
p72
S"{'A': <class 'gluon.html.A'>, 'ANY_OF': <class 'gluon.validators.ANY_OF'>, 'ASSIGNJS': <function ASSIGNJS>, 'AgendaTelefonica': <Table agendaTelefonica (id, instituicao, setor,...reated_on, created_by, modified_on, modified_by)>, 'AppConfig': <function AppConfig>, 'Arquivador': <Table arquivador (id, descricao, arquivo, is_ac...reated_on, created_by, modified_on, modified_by)>, 'Auth': <class 'gluon.tools.Auth'>, 'B': <class 'gluon.html.B'>, 'BEAUTIFY': <class 'gluon.html.BEAUTIFY'>, 'BODY': <class 'gluon.html.BODY'>, ...}"
p73
sS'ccode'
p74
S'<code object <module> at 0x7f0a7875fab0, file "/...plications/gestor/controllers/agenda.py", line 1>'
p75
ssS'lnum'
p76
I219
sS'lines'
p77
(dp78
I214
S'    if environment is None:'
p79
sI215
S'        environment = {}'
p80
sI216
S"    environment['__file__'] = layer"
p81
sI217
S"    environment['__name__'] = '__restricted__'"
p82
sI218
S'    try:'
p83
sI219
S'        exec(ccode, environment)'
p84
sI220
S'    except HTTP:'
p85
sI221
S'        raise'
p86
sI222
S'    except RestrictedError:'
p87
sI223
S'        # do not encapsulate (obfuscate) the original RestrictedError'
p88
ssS'call'
p89
S'(ccode=<code object <module> at 0x7f0a7875fab0, file "/...plications/gestor/controllers/agenda.py", line 1>, environment={\'A\': <class \'gluon.html.A\'>, \'ANY_OF\': <class \'gluon.validators.ANY_OF\'>, \'ASSIGNJS\': <function ASSIGNJS>, \'AgendaTelefonica\': <Table agendaTelefonica (id, instituicao, setor,...reated_on, created_by, modified_on, modified_by)>, \'AppConfig\': <function AppConfig>, \'Arquivador\': <Table arquivador (id, descricao, arquivo, is_ac...reated_on, created_by, modified_on, modified_by)>, \'Auth\': <class \'gluon.tools.Auth\'>, \'B\': <class \'gluon.html.B\'>, \'BEAUTIFY\': <class \'gluon.html.BEAUTIFY\'>, \'BODY\': <class \'gluon.html.BODY\'>, ...}, layer=\'/home/dayvson/Documentos/Dev/web2py/applications/gestor/controllers/agenda.py\', scode=<code object <module> at 0x7f0a7875fab0, file "/...plications/gestor/controllers/agenda.py", line 1>)'
p90
sS'func'
p91
S'restricted'
p92
sa(dp93
g68
S'/home/dayvson/Documentos/Dev/web2py/applications/gestor/controllers/agenda.py'
p94
sg70
(dp95
sg76
I105
sg77
(dp96
I96
S'            #if len(novaPesquisa) == 0:'
p97
sI97
S'                #novaPesquisa = db.executesql("select i.id, i.titulo, i.site, i.telefoneprincipal, i.endereco from instituicao as i left join agendatelefonica as a on i.id = a.instituicao where i.palavraschave ilike(\'%%"+arg0+"%%\') and a.instituicao is null order by i.titulo", as_dict=True)'
p98
sI98
S''
sI99
S'            #contato += novaPesquisa'
p99
sI100
S''
sI101
S'    else:'
p100
sI102
S"        contato = '[]'"
p101
sI103
S'    from gluon.serializers import json'
p102
sI104
S'    return XML(json(contato))'
p103
sI95
S''
ssg89
S'()'
p104
sg91
S'<module>'
p105
sa(dp106
g68
S'/home/dayvson/Documentos/Dev/web2py/gluon/globals.py'
p107
sg70
(dp108
S'self'
p109
S'undefined'
p110
sS'f'
S'<function FXHR_pesquisaContatos>'
p111
ssg76
I414
sg77
(dp112
I416
S'        self._custom_commit = None'
p113
sI417
S'        self._custom_rollback = None'
p114
sI418
S"        self.generic_patterns = ['*']"
p115
sI409
S"        self.flash = ''            # used by the default view layout"
p116
sI410
S'        self.meta = Storage()      # used by web2py_ajax.html'
p117
sI411
S'        self.menu = []             # used by the default view layout'
p118
sI412
S'        self.files = []            # used by web2py_ajax.html'
p119
sI413
S'        self._vars = None'
p120
sI414
S'        self._caller = lambda f: f()'
p121
sI415
S'        self._view_environment = None'
p122
ssg89
S'(f=<function FXHR_pesquisaContatos>)'
p123
sg91
S'<lambda>'
p124
sa(dp125
g68
S'/home/dayvson/Documentos/Dev/web2py/applications/gestor/controllers/agenda.py'
p126
sg70
(dp127
S'arg0'
p128
S"'_d'"
p129
sS'db.executesql'
p130
S'<bound method DAL.executesql of <DAL uri="mysql:******@localhost/gestor">>'
p131
sS'as_dict'
p132
g110
sS'contato'
p133
g110
sS'global db'
p134
S'<DAL uri="mysql:******@localhost/gestor">'
p135
sS'builtinTrue'
p136
S'True'
p137
ssg76
I65
sg77
(dp138
I64
S''
sI65
S'            contato = db.executesql("select distinct a.id, a.instituicao, i.titulo, i.site, i.telefoneprincipal, i.endereco, a.setor as descricao, a.pessoacontato, a.email, a.telefone from instituicao as i inner join agendatelefonica as a on i.id = a.instituicao where i.titulo ilike(\'%%"+arg0+"%%\') and a.ativo=\'T\' order by i.titulo, a.pessoacontato; " , as_dict=True)'
p139
sI66
S''
sI67
S'            if len(contato) == 0:'
p140
sI68
S'                contato = db.executesql("select distinct a.id, a.instituicao, i.titulo, i.site, i.telefoneprincipal, i.endereco, a.setor as descricao, a.pessoacontato, a.email, a.telefone from instituicao as i inner join agendatelefonica as a on i.id = a.instituicao where a.pessoacontato ilike(\'%%"+arg0+"%%\') and a.ativo=\'T\' order by i.titulo, a.pessoacontato;", as_dict=True)'
p141
sI69
S''
sI60
S'            if len(contato) == 0:'
p142
sI61
S'                contato = db.executesql("select distinct i.id, i.titulo, i.site, i.telefoneprincipal, i.endereco from instituicao as i left join agendatelefonica as a on i.id = a.instituicao where i.titulo ilike(\'"+arg0[1]+"%%\') and a.ativo=\'F\' order by i.titulo; " , as_dict=True)'
p143
sI62
S''
sI63
S'        else:'
p144
ssg89
S'()'
p145
sg91
S'FXHR_pesquisaContatos'
p146
sa(dp147
g68
S'/home/dayvson/Documentos/Dev/web2py/gluon/packages/dal/pydal/base.py'
p148
sg70
(dp149
S'query'
p150
S'"select distinct a.id, a.instituicao, i.titulo, i... a.ativo=\'T\' order by i.titulo, a.pessoacontato; "'
p151
sS'adapter'
p152
S'<pydal.adapters.mysql.MySQL object>'
p153
sS'adapter.execute'
p154
S'<bound method MySQL.wrap of <pydal.adapters.mysql.MySQL object>>'
p155
ssg76
I769
sg77
(dp156
I768
S'        else:'
p157
sI769
S'            adapter.execute(query)'
p158
sI770
S'        if as_dict or as_ordered_dict:'
p159
sI771
S"            if not hasattr(adapter.cursor,'description'):"
p160
sI772
S'                raise RuntimeError("database does not support executesql(...,as_dict=True)")'
p161
sI773
S'            # Non-DAL legacy db query, converts cursor results to dict.'
p162
sI764
S'        """'
p163
sI765
S'        adapter = self._adapter'
p164
sI766
S'        if placeholders:'
p165
sI767
S'            adapter.execute(query, placeholders)'
p166
ssg89
S'(self=<DAL uri="mysql:******@localhost/gestor">, query="select distinct a.id, a.instituicao, i.titulo, i... a.ativo=\'T\' order by i.titulo, a.pessoacontato; ", placeholders=None, as_dict=True, fields=None, colnames=None, as_ordered_dict=False)'
p167
sg91
S'executesql'
p168
sa(dp169
g68
S'/home/dayvson/Documentos/Dev/web2py/gluon/packages/dal/pydal/adapters/__init__.py'
p170
sg70
(dp171
S'kwargs'
p172
g21
sS'args'
p173
S'(<pydal.adapters.mysql.MySQL object>, "select distinct a.id, a.instituicao, i.titulo, i... a.ativo=\'T\' order by i.titulo, a.pessoacontato; ")'
p174
sS'f'
S'<function execute>'
p175
ssg76
I67
sg77
(dp176
I64
S'            if len(args) > 1:'
p177
sI65
S'                raise ValueError(args[1])'
p178
sI66
S"            raise RuntimeError('no connection available')"
p179
sI67
S'        return f(*args, **kwargs)'
p180
sI68
S'    return wrap'
p181
sI69
S''
sI70
S''
sI71
S'from .base import SQLAdapter, NoSQLAdapter'
p182
sI62
S'    def wrap(*args, **kwargs):'
p183
sI63
S'        if not args[0].connection:'
p184
ssg89
S'(*args=(<pydal.adapters.mysql.MySQL object>, "select distinct a.id, a.instituicao, i.titulo, i... a.ativo=\'T\' order by i.titulo, a.pessoacontato; "), **kwargs={})'
p185
sg91
S'wrap'
p186
sa(dp187
g68
S'/home/dayvson/Documentos/Dev/web2py/gluon/packages/dal/pydal/adapters/base.py'
p188
sg70
(dp189
S'rv'
p190
g110
sS'self'
p191
S'<pydal.adapters.mysql.MySQL object>'
p192
sS'args'
p193
S'("select distinct a.id, a.instituicao, i.titulo, i... a.ativo=\'T\' order by i.titulo, a.pessoacontato; ",)'
p194
sS'self.cursor'
p195
S'<gluon.contrib.pymysql.cursors.Cursor object>'
p196
sS'command'
p197
S'"select distinct a.id, a.instituicao, i.titulo, i... a.ativo=\'T\' order by i.titulo, a.pessoacontato; "'
p198
sS'self.cursor.execute'
p199
S'<bound method Cursor.execute of <gluon.contrib.pymysql.cursors.Cursor object>>'
p200
sS'kwargs'
p201
g21
ssg76
I412
sg77
(dp202
I416
S''
sI407
S'    def execute(self, *args, **kwargs):'
p203
sI408
S'        command = self.filter_sql_command(args[0])'
p204
sI409
S'        handlers = self._build_handlers_for_execution()'
p205
sI410
S'        for handler in handlers:'
p206
sI411
S'            handler.before_execute(command)'
p207
sI412
S'        rv = self.cursor.execute(command, *args[1:], **kwargs)'
p208
sI413
S'        for handler in handlers:'
p209
sI414
S'            handler.after_execute(command)'
p210
sI415
S'        return rv'
p211
ssg89
S'(self=<pydal.adapters.mysql.MySQL object>, *args=("select distinct a.id, a.instituicao, i.titulo, i... a.ativo=\'T\' order by i.titulo, a.pessoacontato; ",), **kwargs={})'
p212
sg91
S'execute'
p213
sa(dp214
g68
S'/home/dayvson/Documentos/Dev/web2py/gluon/contrib/pymysql/cursors.py'
p215
sg70
(dp216
S'query'
p217
S'"select distinct a.id, a.instituicao, i.titulo, i... a.ativo=\'T\' order by i.titulo, a.pessoacontato; "'
p218
sS'self'
p219
S'<gluon.contrib.pymysql.cursors.Cursor object>'
p220
sS'result'
p221
g110
sS'self._query'
p222
S'<bound method Cursor._query of <gluon.contrib.pymysql.cursors.Cursor object>>'
p223
ssg76
I166
sg77
(dp224
I161
S'        while self.nextset():'
p225
sI162
S'            pass'
p226
sI163
S''
sI164
S'        query = self.mogrify(query, args)'
p227
sI165
S''
sI166
S'        result = self._query(query)'
p228
sI167
S'        self._executed = query'
p229
sI168
S'        return result'
p230
sI169
S''
sI170
S'    def executemany(self, query, args):'
p231
ssg89
S'(self=<gluon.contrib.pymysql.cursors.Cursor object>, query="select distinct a.id, a.instituicao, i.titulo, i... a.ativo=\'T\' order by i.titulo, a.pessoacontato; ", args=None)'
p232
sg91
g213
sa(dp233
g68
S'/home/dayvson/Documentos/Dev/web2py/gluon/contrib/pymysql/cursors.py'
p234
sg70
(dp235
S'q'
S'"select distinct a.id, a.instituicao, i.titulo, i... a.ativo=\'T\' order by i.titulo, a.pessoacontato; "'
p236
sS'conn.query'
p237
S'<bound method Connection.query of <gluon.contrib.pymysql.connections.Connection object>>'
p238
sS'conn'
p239
S'<gluon.contrib.pymysql.connections.Connection object>'
p240
ssg76
I322
sg77
(dp241
I320
S'        conn = self._get_db()'
p242
sI321
S'        self._last_executed = q'
p243
sI322
S'        conn.query(q)'
p244
sI323
S'        self._do_get_result()'
p245
sI324
S'        return self.rowcount'
p246
sI325
S''
sI326
S'    def _do_get_result(self):'
p247
sI317
S'        self.rownumber = r'
p248
sI318
S''
sI319
S'    def _query(self, q):'
p249
ssg89
S'(self=<gluon.contrib.pymysql.cursors.Cursor object>, q="select distinct a.id, a.instituicao, i.titulo, i... a.ativo=\'T\' order by i.titulo, a.pessoacontato; ")'
p250
sg91
S'_query'
p251
sa(dp252
g68
S'/home/dayvson/Documentos/Dev/web2py/gluon/contrib/pymysql/connections.py'
p253
sg70
(dp254
S'self._read_query_result'
p255
S'<bound method Connection._read_query_result of <...n.contrib.pymysql.connections.Connection object>>'
p256
sS'self'
p257
S'<gluon.contrib.pymysql.connections.Connection object>'
p258
sS'unbuffered'
p259
S'False'
p260
sS'self._affected_rows'
p261
S'1'
ssg76
I835
sg77
(dp262
I832
S'            else:'
p263
sI833
S"                sql = sql.encode(self.encoding, 'surrogateescape')"
p264
sI834
S'        self._execute_command(COMMAND.COM_QUERY, sql)'
p265
sI835
S'        self._affected_rows = self._read_query_result(unbuffered=unbuffered)'
p266
sI836
S'        return self._affected_rows'
p267
sI837
S''
sI838
S'    def next_result(self, unbuffered=False):'
p268
sI839
S'        self._affected_rows = self._read_query_result(unbuffered=unbuffered)'
p269
sI830
S'            if PY2:'
p270
sI831
S'                sql = sql.encode(self.encoding)'
p271
ssg89
S'(self=<gluon.contrib.pymysql.connections.Connection object>, sql="select distinct a.id, a.instituicao, i.titulo, i... a.ativo=\'T\' order by i.titulo, a.pessoacontato; ", unbuffered=False)'
p272
sg91
S'query'
p273
sa(dp274
g68
S'/home/dayvson/Documentos/Dev/web2py/gluon/contrib/pymysql/connections.py'
p275
sg70
(dp276
S'result.read'
p277
S'<bound method MySQLResult.read of <gluon.contrib.pymysql.connections.MySQLResult object>>'
p278
sS'result'
p279
S'<gluon.contrib.pymysql.connections.MySQLResult object>'
p280
ssg76
I1019
sg77
(dp281
I1014
S'                result.unbuffered_active = False'
p282
sI1015
S'                result.connection = None'
p283
sI1016
S'                raise'
p284
sI1017
S'        else:'
p285
sI1018
S'            result = MySQLResult(self)'
p286
sI1019
S'            result.read()'
p287
sI1020
S'        self._result = result'
p288
sI1021
S'        if result.server_status is not None:'
p289
sI1022
S'            self.server_status = result.server_status'
p290
sI1023
S'        return result.affected_rows'
p291
ssg89
S'(self=<gluon.contrib.pymysql.connections.Connection object>, unbuffered=False)'
p292
sg91
S'_read_query_result'
p293
sa(dp294
g68
S'/home/dayvson/Documentos/Dev/web2py/gluon/contrib/pymysql/connections.py'
p295
sg70
(dp296
S'first_packet'
p297
g110
sS'self'
p298
S'<gluon.contrib.pymysql.connections.MySQLResult object>'
p299
sS'self.connection'
p300
S'None'
p301
sS'self.connection._read_packet'
p302
g110
ssg76
I1302
sg77
(dp303
I1297
S'        if self.unbuffered_active:'
p304
sI1298
S'            self._finish_unbuffered_query()'
p305
sI1299
S''
sI1300
S'    def read(self):'
p306
sI1301
S'        try:'
p307
sI1302
S'            first_packet = self.connection._read_packet()'
p308
sI1303
S''
sI1304
S'            if first_packet.is_ok_packet():'
p309
sI1305
S'                self._read_ok_packet(first_packet)'
p310
sI1306
S'            elif first_packet.is_load_local_packet():'
p311
ssg89
S'(self=<gluon.contrib.pymysql.connections.MySQLResult object>)'
p312
sg91
S'read'
p313
sa(dp314
g68
S'/home/dayvson/Documentos/Dev/web2py/gluon/contrib/pymysql/connections.py'
p315
sg70
(dp316
S'packet'
p317
S'<gluon.contrib.pymysql.connections.MysqlPacket object>'
p318
sS'packet.check_error'
p319
S'<bound method MysqlPacket.check_error of <gluon.contrib.pymysql.connections.MysqlPacket object>>'
p320
ssg76
I981
sg77
(dp321
I976
S'                continue'
p322
sI977
S'            if bytes_to_read < MAX_PACKET_LEN:'
p323
sI978
S'                break'
p324
sI979
S''
sI980
S'        packet = packet_type(buff, self.encoding)'
p325
sI981
S'        packet.check_error()'
p326
sI982
S'        return packet'
p327
sI983
S''
sI984
S'    def _read_bytes(self, num_bytes):'
p328
sI985
S'        self._sock.settimeout(self._read_timeout)'
p329
ssg89
S"(self=<gluon.contrib.pymysql.connections.Connection object>, packet_type=<class 'gluon.contrib.pymysql.connections.MysqlPacket'>)"
p330
sg91
S'_read_packet'
p331
sa(dp332
g68
S'/home/dayvson/Documentos/Dev/web2py/gluon/contrib/pymysql/connections.py'
p333
sg70
(dp334
S'self._data'
p335
S'"\\xff(\\x04#42000You have an error in your SQL syntax; c...\'T\' order by i.titulo, a.pessoacontato\' at line 1"'
p336
sS'self'
p337
S'<gluon.contrib.pymysql.connections.MysqlPacket object>'
p338
sS'global err'
p339
S"<module 'gluon.contrib.pymysql.err' from '/home/...mentos/Dev/web2py/gluon/contrib/pymysql/err.pyc'>"
p340
sS'err.raise_mysql_exception'
p341
S'<function raise_mysql_exception>'
p342
ssg76
I393
sg77
(dp343
I388
S'        if self.is_error_packet():'
p344
sI389
S'            self.rewind()'
p345
sI390
S'            self.advance(1)  # field_count == error (we already know that)'
p346
sI391
S'            errno = self.read_uint16()'
p347
sI392
S'            if DEBUG: print("errno =", errno)'
p348
sI393
S'            err.raise_mysql_exception(self._data)'
p349
sI394
S''
sI395
S'    def dump(self):'
p350
sI396
S'        dump_packet(self._data)'
p351
sI397
S''
ssg89
S'(self=<gluon.contrib.pymysql.connections.MysqlPacket object>)'
p352
sg91
S'check_error'
p353
sa(dp354
g68
S'/home/dayvson/Documentos/Dev/web2py/gluon/contrib/pymysql/err.py'
p355
sg70
(dp356
S'errorclass'
p357
S"<class 'gluon.contrib.pymysql.err.ProgrammingError'>"
p358
sS'errno'
p359
S'1064'
p360
sS'errval'
p361
S'u"You have an error in your SQL syntax; check th...T\' order by i.titulo, a.pessoacontato\' at line 1"'
p362
ssg76
I107
sg77
(dp363
I98
S'def raise_mysql_exception(data):'
p364
sI99
S"    errno = struct.unpack('<h', data[1:3])[0]"
p365
sI100
S'    is_41 = data[3:4] == b"#"'
p366
sI101
S'    if is_41:'
p367
sI102
S'        # client protocol 4.1'
p368
sI103
S"        errval = data[9:].decode('utf-8', 'replace')"
p369
sI104
S'    else:'
p370
sI105
S"        errval = data[3:].decode('utf-8', 'replace')"
p371
sI106
S'    errorclass = error_map.get(errno, InternalError)'
p372
sI107
S'    raise errorclass(errno, errval)'
p373
ssg89
S'(data="\\xff(\\x04#42000You have an error in your SQL syntax; c...\'T\' order by i.titulo, a.pessoacontato\' at line 1")'
p374
sg91
S'raise_mysql_exception'
p375
sasS'pyver'
p376
S'Python 2.7.12: /usr/bin/python (prefix: /usr)'
p377
sS'session'
p378
g63
(S's\x1a\x00\x00\x00<div><table></table></div>'
tRp379
sS'etype'
p380
S"<class 'gluon.contrib.pymysql.err.ProgrammingError'>"
p381
sS'date'
p382
S'Tue Dec 12 15:42:32 2017'
p383
sS'response'
p384
g63
(S's\xb0>\x00\x00<div><table><tr><td style="font-weight:bold;vertical-align:top;">body</td><td style="vertical-align:top;">:</td><td><div>&lt;cStringIO.StringO object at 0x7f0a7877f618&gt;</div></td></tr><tr><td style="font-weight:bold;vertical-align:top;">cookies</td><td style="vertical-align:top;">:</td><td><div><table><tr><td style="font-weight:bold;vertical-align:top;">session_id_gestor</td><td style="vertical-align:top;">:</td><td><div>127.0.0.1-48c7acf9-b58d-4c82-a89a-fc72b43b416e<table><tr><td style="font-weight:bold;vertical-align:top;">comment</td><td style="vertical-align:top;">:</td><td><div></div></td></tr><tr><td style="font-weight:bold;vertical-align:top;">domain</td><td style="vertical-align:top;">:</td><td><div></div></td></tr><tr><td style="font-weight:bold;vertical-align:top;">expires</td><td style="vertical-align:top;">:</td><td><div></div></td></tr><tr><td style="font-weight:bold;vertical-align:top;">httponly</td><td style="vertical-align:top;">:</td><td><div></div></td></tr><tr><td style="font-weight:bold;vertical-align:top;">max-age</td><td style="vertical-align:top;">:</td><td><div></div></td></tr><tr><td style="font-weight:bold;vertical-align:top;">path</td><td style="vertical-align:top;">:</td><td><div>/</div></td></tr><tr><td style="font-weight:bold;vertical-align:top;">secure</td><td style="vertical-align:top;">:</td><td><div></div></td></tr><tr><td style="font-weight:bold;vertical-align:top;">version</td><td style="vertical-align:top;">:</td><td><div></div></td></tr></table></div></td></tr></table></div></td></tr><tr><td style="font-weight:bold;vertical-align:top;">delimiters</td><td style="vertical-align:top;">:</td><td><div><table><tr><td><div>{{</div></td></tr><tr><td><div>}}</div></td></tr></table></div></td></tr><tr><td style="font-weight:bold;vertical-align:top;">files</td><td style="vertical-align:top;">:</td><td><div><table></table></div></td></tr><tr><td style="font-weight:bold;vertical-align:top;">flash</td><td style="vertical-align:top;">:</td><td><div></div></td></tr><tr><td style="font-weight:bold;vertical-align:top;">form_label_separator</td><td style="vertical-align:top;">:</td><td><div></div></td></tr><tr><td style="font-weight:bold;vertical-align:top;">formstyle</td><td style="vertical-align:top;">:</td><td><div>bootstrap3_inline</div></td></tr><tr><td style="font-weight:bold;vertical-align:top;">generic_patterns</td><td style="vertical-align:top;">:</td><td><div><table><tr><td><div>*</div></td></tr></table></div></td></tr><tr><td style="font-weight:bold;vertical-align:top;">google_analytics_id</td><td style="vertical-align:top;">:</td><td><div>None</div></td></tr><tr><td style="font-weight:bold;vertical-align:top;">headers</td><td style="vertical-align:top;">:</td><td><div><table><tr><td style="font-weight:bold;vertical-align:top;">X-Powered-By</td><td style="vertical-align:top;">:</td><td><div>web2py</div></td></tr></table></div></td></tr><tr><td style="font-weight:bold;vertical-align:top;">logo</td><td style="vertical-align:top;">:</td><td><div><a class="navbar-brand" href="http://www.web2py.com/" id="web2py-logo"><b>web<span>2</span>py</b>&trade;&nbsp;</a></div></td></tr><tr><td style="font-weight:bold;vertical-align:top;">menu</td><td style="vertical-align:top;">:</td><td><div><table><tr><td><div><table><tr><td><div>Principal</div></td></tr><tr><td><div>False</div></td></tr><tr><td><div>/gestor/default/index</div></td></tr><tr><td><div><table></table></div></td></tr></table></div></td></tr><tr><td><div><table><tr><td><div>Meus sites</div></td></tr><tr><td><div>False</div></td></tr><tr><td><div>/admin/default/site</div></td></tr></table></div></td></tr><tr><td><div><table><tr><td><div>Esta aplica\xc3\xa7\xc3\xa3o</div></td></tr><tr><td><div>False</div></td></tr><tr><td><div>#</div></td></tr><tr><td><div><table><tr><td><div><table><tr><td><div>Design</div></td></tr><tr><td><div>False</div></td></tr><tr><td><div>/admin/default/design/gestor</div></td></tr></table></div></td></tr><tr><td><div><li class="divider"></li></div></td></tr><tr><td><div><table><tr><td><div>Controlador</div></td></tr><tr><td><div>False</div></td></tr><tr><td><div>/admin/default/edit/gestor/controllers/agenda.py</div></td></tr></table></div></td></tr><tr><td><div><table><tr><td><div>Visualiza\xc3\xa7\xc3\xa3o</div></td></tr><tr><td><div>False</div></td></tr><tr><td><div>/admin/default/edit/gestor/views/agenda/FXHR_pesquisaContatos.html</div></td></tr></table></div></td></tr><tr><td><div><table><tr><td><div>Modelo BD</div></td></tr><tr><td><div>False</div></td></tr><tr><td><div>/admin/default/edit/gestor/models/db.py</div></td></tr></table></div></td></tr><tr><td><div><table><tr><td><div>Modelo de Menu</div></td></tr><tr><td><div>False</div></td></tr><tr><td><div>/admin/default/edit/gestor/models/menu.py</div></td></tr></table></div></td></tr><tr><td><div><table><tr><td><div>Config.ini</div></td></tr><tr><td><div>False</div></td></tr><tr><td><div>/admin/default/edit/gestor/private/appconfig.ini</div></td></tr></table></div></td></tr><tr><td><div><table><tr><td><div>Layout</div></td></tr><tr><td><div>False</div></td></tr><tr><td><div>/admin/default/edit/gestor/views/layout.html</div></td></tr></table></div></td></tr><tr><td><div><table><tr><td><div>Folha de estilo</div></td></tr><tr><td><div>False</div></td></tr><tr><td><div>/admin/default/edit/gestor/static/css/web2py-bootstrap3.css</div></td></tr></table></div></td></tr><tr><td><div><table><tr><td><div>banco de dados</div></td></tr><tr><td><div>False</div></td></tr><tr><td><div>/gestor/appadmin/index</div></td></tr></table></div></td></tr><tr><td><div><table><tr><td><div>Erros</div></td></tr><tr><td><div>False</div></td></tr><tr><td><div>/admin/default/errors/gestor</div></td></tr></table></div></td></tr><tr><td><div><table><tr><td><div>Sobre</div></td></tr><tr><td><div>False</div></td></tr><tr><td><div>/admin/default/about/gestor</div></td></tr></table></div></td></tr></table></div></td></tr></table></div></td></tr><tr><td><div><table><tr><td><div>web2py.com</div></td></tr><tr><td><div>False</div></td></tr><tr><td><div>#</div></td></tr><tr><td><div><table><tr><td><div><table><tr><td><div>Download</div></td></tr><tr><td><div>False</div></td></tr><tr><td><div>http://www.web2py.com/examples/default/download</div></td></tr></table></div></td></tr><tr><td><div><table><tr><td><div>Suporte</div></td></tr><tr><td><div>False</div></td></tr><tr><td><div>http://www.web2py.com/examples/default/support</div></td></tr></table></div></td></tr><tr><td><div><table><tr><td><div>Demo</div></td></tr><tr><td><div>False</div></td></tr><tr><td><div>http://web2py.com/demo_admin</div></td></tr></table></div></td></tr><tr><td><div><table><tr><td><div>Exemplos r\xc3\xa1pidos</div></td></tr><tr><td><div>False</div></td></tr><tr><td><div>http://web2py.com/examples/default/examples</div></td></tr></table></div></td></tr><tr><td><div><table><tr><td><div>Perguntas frequentes</div></td></tr><tr><td><div>False</div></td></tr><tr><td><div>http://web2py.com/AlterEgo</div></td></tr></table></div></td></tr><tr><td><div><table><tr><td><div>V\xc3\xaddeos</div></td></tr><tr><td><div>False</div></td></tr><tr><td><div>http://www.web2py.com/examples/default/videos/</div></td></tr></table></div></td></tr><tr><td><div><table><tr><td><div>Aplica\xc3\xa7\xc3\xb5es gratuitas</div></td></tr><tr><td><div>False</div></td></tr><tr><td><div>http://web2py.com/appliances</div></td></tr></table></div></td></tr><tr><td><div><table><tr><td><div>Plugins</div></td></tr><tr><td><div>False</div></td></tr><tr><td><div>http://web2py.com/plugins</div></td></tr></table></div></td></tr><tr><td><div><table><tr><td><div>Receitas</div></td></tr><tr><td><div>False</div></td></tr><tr><td><div>http://web2pyslices.com/</div></td></tr></table></div></td></tr></table></div></td></tr></table></div></td></tr><tr><td><div><table><tr><td><div>Documenta\xc3\xa7\xc3\xa3o</div></td></tr><tr><td><div>False</div></td></tr><tr><td><div>#</div></td></tr><tr><td><div><table><tr><td><div><table><tr><td><div>Online book</div></td></tr><tr><td><div>False</div></td></tr><tr><td><div>http://www.web2py.com/book</div></td></tr></table></div></td></tr><tr><td><div><li class="divider"></li></div></td></tr><tr><td><div><table><tr><td><div>Pref\xc3\xa1cio</div></td></tr><tr><td><div>False</div></td></tr><tr><td><div>http://www.web2py.com/book/default/chapter/00</div></td></tr></table></div></td></tr><tr><td><div><table><tr><td><div>Introdu\xc3\xa7\xc3\xa3o</div></td></tr><tr><td><div>False</div></td></tr><tr><td><div>http://www.web2py.com/book/default/chapter/01</div></td></tr></table></div></td></tr><tr><td><div><table><tr><td><div>Python</div></td></tr><tr><td><div>False</div></td></tr><tr><td><div>http://www.web2py.com/book/default/chapter/02</div></td></tr></table></div></td></tr><tr><td><div><table><tr><td><div>Vis\xc3\xa3o Geral</div></td></tr><tr><td><div>False</div></td></tr><tr><td><div>http://www.web2py.com/book/default/chapter/03</div></td></tr></table></div></td></tr><tr><td><div><table><tr><td><div>The Core</div></td></tr><tr><td><div>False</div></td></tr><tr><td><div>http://www.web2py.com/book/default/chapter/04</div></td></tr></table></div></td></tr><tr><td><div><table><tr><td><div>As views</div></td></tr><tr><td><div>False</div></td></tr><tr><td><div>http://www.web2py.com/book/default/chapter/05</div></td></tr></table></div></td></tr><tr><td><div><table><tr><td><div>banco de dados</div></td></tr><tr><td><div>False</div></td></tr><tr><td><div>http://www.web2py.com/book/default/chapter/06</div></td></tr></table></div></td></tr><tr><td><div><table><tr><td><div>Formul\xc3\xa1rios e Validadores</div></td></tr><tr><td><div>False</div></td></tr><tr><td><div>http://www.web2py.com/book/default/chapter/07</div></td></tr></table></div></td></tr><tr><td><div><table><tr><td><div>Email e SMS</div></td></tr><tr><td><div>False</div></td></tr><tr><td><div>http://www.web2py.com/book/default/chapter/08</div></td></tr></table></div></td></tr><tr><td><div><table><tr><td><div>Controle de Acesso</div></td></tr><tr><td><div>False</div></td></tr><tr><td><div>http://www.web2py.com/book/default/chapter/09</div></td></tr></table></div></td></tr><tr><td><div><table><tr><td><div>Servi\xc3\xa7o</div></td></tr><tr><td><div>False</div></td></tr><tr><td><div>http://www.web2py.com/book/default/chapter/10</div></td></tr></table></div></td></tr><tr><td><div><table><tr><td><div>Receitas de Ajax</div></td></tr><tr><td><div>False</div></td></tr><tr><td><div>http://www.web2py.com/book/default/chapter/11</div></td></tr></table></div></td></tr><tr><td><div><table><tr><td><div>Componentes e Plugins</div></td></tr><tr><td><div>False</div></td></tr><tr><td><div>http://www.web2py.com/book/default/chapter/12</div></td></tr></table></div></td></tr><tr><td><div><table><tr><td><div>Receitas de deploy</div></td></tr><tr><td><div>False</div></td></tr><tr><td><div>http://www.web2py.com/book/default/chapter/13</div></td></tr></table></div></td></tr><tr><td><div><table><tr><td><div>Outras Receitas</div></td></tr><tr><td><div>False</div></td></tr><tr><td><div>http://www.web2py.com/book/default/chapter/14</div></td></tr></table></div></td></tr><tr><td><div><table><tr><td><div>Helping web2py</div></td></tr><tr><td><div>False</div></td></tr><tr><td><div>http://www.web2py.com/book/default/chapter/15</div></td></tr></table></div></td></tr><tr><td><div><table><tr><td><div>Compre o livro do web2buy</div></td></tr><tr><td><div>False</div></td></tr><tr><td><div>http://stores.lulu.com/web2py</div></td></tr></table></div></td></tr></table></div></td></tr></table></div></td></tr><tr><td><div><table><tr><td><div>Comunidade</div></td></tr><tr><td><div>False</div></td></tr><tr><td><div>None</div></td></tr><tr><td><div><table><tr><td><div><table><tr><td><div>Grupos</div></td></tr><tr><td><div>False</div></td></tr><tr><td><div>http://www.web2py.com/examples/default/usergroups</div></td></tr></table></div></td></tr><tr><td><div><table><tr><td><div>Twitter</div></td></tr><tr><td><div>False</div></td></tr><tr><td><div>http://twitter.com/web2py</div></td></tr></table></div></td></tr><tr><td><div><table><tr><td><div>Chat ao vivo</div></td></tr><tr><td><div>False</div></td></tr><tr><td><div>http://webchat.freenode.net/?channels=web2py</div></td></tr></table></div></td></tr></table></div></td></tr></table></div></td></tr></table></div></td></tr><tr><td style="font-weight:bold;vertical-align:top;">meta</td><td style="vertical-align:top;">:</td><td><div><table><tr><td style="font-weight:bold;vertical-align:top;">author</td><td style="vertical-align:top;">:</td><td><div>Your Name &lt;you@example.com&gt;</div></td></tr><tr><td style="font-weight:bold;vertical-align:top;">description</td><td style="vertical-align:top;">:</td><td><div>a cool new app</div></td></tr><tr><td style="font-weight:bold;vertical-align:top;">generator</td><td style="vertical-align:top;">:</td><td><div>Web2py Web Framework</div></td></tr><tr><td style="font-weight:bold;vertical-align:top;">keywords</td><td style="vertical-align:top;">:</td><td><div><table><tr><td><div>web2py</div></td></tr><tr><td><div>python</div></td></tr><tr><td><div>framework</div></td></tr></table></div></td></tr></table></div></td></tr><tr><td style="font-weight:bold;vertical-align:top;">models_to_run</td><td style="vertical-align:top;">:</td><td><div><table><tr><td><div>^\\w+\\.py$</div></td></tr><tr><td><div>^agenda/\\w+\\.py$</div></td></tr><tr><td><div>^agenda/FXHR_pesquisaContatos/\\w+\\.py$</div></td></tr></table></div></td></tr><tr><td style="font-weight:bold;vertical-align:top;">postprocessing</td><td style="vertical-align:top;">:</td><td><div><table></table></div></td></tr><tr><td style="font-weight:bold;vertical-align:top;">session_client</td><td style="vertical-align:top;">:</td><td><div>127.0.0.1</div></td></tr><tr><td style="font-weight:bold;vertical-align:top;">session_cookie_compression_level</td><td style="vertical-align:top;">:</td><td><div>None</div></td></tr><tr><td style="font-weight:bold;vertical-align:top;">session_cookie_expires</td><td style="vertical-align:top;">:</td><td><div>None</div></td></tr><tr><td style="font-weight:bold;vertical-align:top;">session_data_name</td><td style="vertical-align:top;">:</td><td><div>session_data_gestor</div></td></tr><tr><td style="font-weight:bold;vertical-align:top;">session_file</td><td style="vertical-align:top;">:</td><td><div>None</div></td></tr><tr><td style="font-weight:bold;vertical-align:top;">session_filename</td><td style="vertical-align:top;">:</td><td><div>/home/dayvson/Documentos/Dev/web2py/applications/gestor/sessions/127.0.0.1-48c7acf9-b58d-4c82-a89a-fc72b43b416e</div></td></tr><tr><td style="font-weight:bold;vertical-align:top;">session_hash</td><td style="vertical-align:top;">:</td><td><div>c0762cbf4baf7f9af97c051e7fcb8083</div></td></tr><tr><td style="font-weight:bold;vertical-align:top;">session_id</td><td style="vertical-align:top;">:</td><td><div>127.0.0.1-48c7acf9-b58d-4c82-a89a-fc72b43b416e</div></td></tr><tr><td style="font-weight:bold;vertical-align:top;">session_id_name</td><td style="vertical-align:top;">:</td><td><div>session_id_gestor</div></td></tr><tr><td style="font-weight:bold;vertical-align:top;">session_masterapp</td><td style="vertical-align:top;">:</td><td><div>gestor</div></td></tr><tr><td style="font-weight:bold;vertical-align:top;">session_new</td><td style="vertical-align:top;">:</td><td><div>True</div></td></tr><tr><td style="font-weight:bold;vertical-align:top;">session_storage_type</td><td style="vertical-align:top;">:</td><td><div>file</div></td></tr><tr><td style="font-weight:bold;vertical-align:top;">status</td><td style="vertical-align:top;">:</td><td><div>200</div></td></tr><tr><td style="font-weight:bold;vertical-align:top;">subtitle</td><td style="vertical-align:top;">:</td><td><div></div></td></tr><tr><td style="font-weight:bold;vertical-align:top;">title</td><td style="vertical-align:top;">:</td><td><div>Gestor</div></td></tr><tr><td style="font-weight:bold;vertical-align:top;">view</td><td style="vertical-align:top;">:</td><td><div>agenda/FXHR_pesquisaContatos.html</div></td></tr></table></div>'
tRp385
sS'locals'
p386
(dp387
S'errorclass'
p388
S"<class 'gluon.contrib.pymysql.err.ProgrammingError'>"
p389
sS'errno'
p390
S'1064'
p391
sS'is_41'
p392
g137
sS'errval'
p393
S'u"You have an error in your SQL syntax; check th...T\' order by i.titulo, a.pessoacontato\' at line 1"'
p394
sS'data'
p395
S'"\\xff(\\x04#42000You have an error in your SQL syntax; c...\'T\' order by i.titulo, a.pessoacontato\' at line 1"'
p396
sssS'traceback'
p397
S'Traceback (most recent call last):\n  File "/home/dayvson/Documentos/Dev/web2py/gluon/restricted.py", line 219, in restricted\n    exec(ccode, environment)\n  File "/home/dayvson/Documentos/Dev/web2py/applications/gestor/controllers/agenda.py", line 105, in <module>\n  File "/home/dayvson/Documentos/Dev/web2py/gluon/globals.py", line 414, in <lambda>\n    self._caller = lambda f: f()\n  File "/home/dayvson/Documentos/Dev/web2py/applications/gestor/controllers/agenda.py", line 65, in FXHR_pesquisaContatos\n    contato = db.executesql("select distinct a.id, a.instituicao, i.titulo, i.site, i.telefoneprincipal, i.endereco, a.setor as descricao, a.pessoacontato, a.email, a.telefone from instituicao as i inner join agendatelefonica as a on i.id = a.instituicao where i.titulo ilike(\'%%"+arg0+"%%\') and a.ativo=\'T\' order by i.titulo, a.pessoacontato; " , as_dict=True)\n  File "/home/dayvson/Documentos/Dev/web2py/gluon/packages/dal/pydal/base.py", line 769, in executesql\n    adapter.execute(query)\n  File "/home/dayvson/Documentos/Dev/web2py/gluon/packages/dal/pydal/adapters/__init__.py", line 67, in wrap\n    return f(*args, **kwargs)\n  File "/home/dayvson/Documentos/Dev/web2py/gluon/packages/dal/pydal/adapters/base.py", line 412, in execute\n    rv = self.cursor.execute(command, *args[1:], **kwargs)\n  File "/home/dayvson/Documentos/Dev/web2py/gluon/contrib/pymysql/cursors.py", line 166, in execute\n    result = self._query(query)\n  File "/home/dayvson/Documentos/Dev/web2py/gluon/contrib/pymysql/cursors.py", line 322, in _query\n    conn.query(q)\n  File "/home/dayvson/Documentos/Dev/web2py/gluon/contrib/pymysql/connections.py", line 835, in query\n    self._affected_rows = self._read_query_result(unbuffered=unbuffered)\n  File "/home/dayvson/Documentos/Dev/web2py/gluon/contrib/pymysql/connections.py", line 1019, in _read_query_result\n    result.read()\n  File "/home/dayvson/Documentos/Dev/web2py/gluon/contrib/pymysql/connections.py", line 1302, in read\n    first_packet = self.connection._read_packet()\n  File "/home/dayvson/Documentos/Dev/web2py/gluon/contrib/pymysql/connections.py", line 981, in _read_packet\n    packet.check_error()\n  File "/home/dayvson/Documentos/Dev/web2py/gluon/contrib/pymysql/connections.py", line 393, in check_error\n    err.raise_mysql_exception(self._data)\n  File "/home/dayvson/Documentos/Dev/web2py/gluon/contrib/pymysql/err.py", line 107, in raise_mysql_exception\n    raise errorclass(errno, errval)\nProgrammingError: (1064, u"You have an error in your SQL syntax; check the manual that corresponds to your MariaDB server version for the right syntax to use near \'ilike(\'%%_d%%\') and a.ativo=\'T\' order by i.titulo, a.pessoacontato\' at line 1")\n'
p398
s.